target datalayout = "e-m:e-p270:32:32-p271:32:32-p272:64:64-i64:64-i128:128-f80:128-n8:16:32:64-S128"
target triple = "x86_64-pc-linux-gnu"

@eobi_handle = internal global ptr null, align 8
@.str.185 = private unnamed_addr constant [9 x i8] c"udp.port\00", align 1

; Function Attrs: null_pointer_is_valid sspstrong uwtable
define hidden void @proto_reg_handoff_eobi() #0 {
  %1 = alloca i32, align 4
  call void @llvm.lifetime.start.p0(i64 4, ptr %1) #5
  store i32 0, ptr %1, align 4
  br label %2

2:                                                ; preds = %13, %0
  %3 = load i32, ptr %1, align 4
  %4 = zext i32 %3 to i64
  %5 = icmp ult i64 %4, 24
  br i1 %5, label %7, label %6

6:                                                ; preds = %2
  call void @llvm.lifetime.end.p0(i64 4, ptr %1) #5
  br label %16

7:                                                ; preds = %2
  %8 = load i32, ptr %1, align 4
  %9 = zext i32 %8 to i64
  %10 = getelementptr [24 x i32], ptr @proto_reg_handoff_eobi.ports, i64 0, i64 %9
  %11 = load i32, ptr %10, align 4
  %12 = load ptr, ptr @eobi_handle, align 8
  call void @dissector_add_uint(ptr noundef @.str.185, i32 noundef %11, ptr noundef %12)
  br label %13

13:                                               ; preds = %7
  %14 = load i32, ptr %1, align 4
  %15 = add i32 %14, 1
  store i32 %15, ptr %1, align 4
  br label %2, !llvm.loop !6

16:                                               ; preds = %6
  ret void
}