; Function Attrs: null_pointer_is_valid sspstrong uwtable
define hidden void @proto_reg_handoff_eobi() local_unnamed_addr #0 {
  br label %2

1:                                                ; preds = %2
  ret void

2:                                                ; preds = %0, %2
  %indvars.iv = phi i64 [ 0, %0 ], [ %indvars.iv.next, %2 ]
  %3 = getelementptr [24 x i32], ptr @proto_reg_handoff_eobi.ports, i64 0, i64 %indvars.iv
  %4 = load i32, ptr %3, align 4
  %5 = load ptr, ptr @eobi_handle, align 8
  tail call void @dissector_add_uint(ptr noundef nonnull @.str.185, i32 noundef %4, ptr noundef %5)
  %indvars.iv.next = add nuw nsw i64 %indvars.iv, 1
  %exitcond.not = icmp eq i64 %indvars.iv.next, 24
  br i1 %exitcond.not, label %1, label %2, !llvm.loop !6
}